; Function Attrs: mustprogress uwtable
define void @_ZN6icu_7512FixedDecimalC2Edil(ptr noundef nonnull align 8 dereferenceable(64) %this, double noundef %n, i32 noundef %v, i64 noundef %f) unnamed_addr #1 align 2 personality ptr @__gxx_personality_v0 {
entry:
  %0 = getelementptr inbounds i8, ptr %this, i64 8
  store ptr getelementptr inbounds ({ [8 x ptr], [5 x ptr] }, ptr @_ZTVN6icu_7512FixedDecimalE, i64 0, i32 0, i64 2), ptr %this, align 8
  store ptr getelementptr inbounds ({ [8 x ptr], [5 x ptr] }, ptr @_ZTVN6icu_7512FixedDecimalE, i64 0, i32 1, i64 2), ptr %0, align 8
  %cmp.i.i.i = fcmp olt double %n, 0.000000e+00
  %conv.i.i.i = zext i1 %cmp.i.i.i to i8
  %isNegative.i.i.i = getelementptr inbounds i8, ptr %this, i64 61
  store i8 %conv.i.i.i, ptr %isNegative.i.i.i, align 1
  %1 = tail call double @llvm.fabs.f64(double %n)
  %source.i.i.i = getelementptr inbounds i8, ptr %this, i64 16
  store double %1, ptr %source.i.i.i, align 8
  %call.i.i.i1 = invoke signext i8 @uprv_isNaN_75(double noundef %1)
          to label %call.i.i.i.noexc unwind label %lpad

call.i.i.i.noexc:                                 ; preds = %entry
  %_isNaN.i.i.i = getelementptr inbounds i8, ptr %this, i64 62
  store i8 %call.i.i.i1, ptr %_isNaN.i.i.i, align 2
  %2 = load double, ptr %source.i.i.i, align 8
  %call4.i.i.i2 = invoke signext i8 @uprv_isInfinite_75(double noundef %2)
          to label %call4.i.i.i.noexc unwind label %lpad

call4.i.i.i.noexc:                                ; preds = %call.i.i.i.noexc
  %_isInfinite.i.i.i = getelementptr inbounds i8, ptr %this, i64 63
  store i8 %call4.i.i.i2, ptr %_isInfinite.i.i.i, align 1
  %exponent.i.i.i = getelementptr inbounds i8, ptr %this, i64 56
  store i32 0, ptr %exponent.i.i.i, align 8
  %3 = load i8, ptr %_isNaN.i.i.i, align 2
  %tobool.not.i.i.i = icmp eq i8 %3, 0
  %tobool10.not.i.i.i = icmp eq i8 %call4.i.i.i2, 0
  %or.cond.i.i.i = select i1 %tobool.not.i.i.i, i1 %tobool10.not.i.i.i, i1 false
  br i1 %or.cond.i.i.i, label %if.end21.i.i.i, label %if.end21.thread.i.i.i

if.end21.thread.i.i.i:                            ; preds = %call4.i.i.i.noexc
  %intValue.i.i.i = getelementptr inbounds i8, ptr %this, i64 48
  store i64 0, ptr %intValue.i.i.i, align 8
  %_hasIntegerValue.i.i.i = getelementptr inbounds i8, ptr %this, i64 60
  store i8 0, ptr %_hasIntegerValue.i.i.i, align 4
  %visibleDecimalDigitCount8.i.i.i = getelementptr inbounds i8, ptr %this, i64 24
  store i32 0, ptr %visibleDecimalDigitCount8.i.i.i, align 8
  %decimalDigits9.i.i.i = getelementptr inbounds i8, ptr %this, i64 32
  store i64 0, ptr %decimalDigits9.i.i.i, align 8
  br label %invoke.cont

if.end21.i.i.i:                                   ; preds = %call4.i.i.i.noexc
  %4 = load double, ptr %source.i.i.i, align 8
  %conv13.i.i.i = fptosi double %4 to i64
  %intValue14.i.i.i = getelementptr inbounds i8, ptr %this, i64 48
  store i64 %conv13.i.i.i, ptr %intValue14.i.i.i, align 8
  %conv17.i.i.i = sitofp i64 %conv13.i.i.i to double
  %cmp18.i.i.i = fcmp oeq double %4, %conv17.i.i.i
  %conv19.i.i.i = zext i1 %cmp18.i.i.i to i8
  %_hasIntegerValue20.i.i.i = getelementptr inbounds i8, ptr %this, i64 60
  store i8 %conv19.i.i.i, ptr %_hasIntegerValue20.i.i.i, align 4
  %visibleDecimalDigitCount.i.i.i = getelementptr inbounds i8, ptr %this, i64 24
  store i32 %v, ptr %visibleDecimalDigitCount.i.i.i, align 8
  %decimalDigits.i.i.i = getelementptr inbounds i8, ptr %this, i64 32
  store i64 %f, ptr %decimalDigits.i.i.i, align 8
  %cmp22.i.i.i = icmp eq i64 %f, 0
  br i1 %cmp22.i.i.i, label %invoke.cont, label %while.cond.preheader.i.i.i

while.cond.preheader.i.i.i:                       ; preds = %if.end21.i.i.i
  %rem11.i.i.i = srem i64 %f, 10
  %cmp2512.i.i.i = icmp eq i64 %rem11.i.i.i, 0
  br i1 %cmp2512.i.i.i, label %while.body.i.i.i, label %invoke.cont

while.body.i.i.i:                                 ; preds = %while.cond.preheader.i.i.i, %while.body.i.i.i
  %fdwtz.013.i.i.i = phi i64 [ %div.i.i.i, %while.body.i.i.i ], [ %f, %while.cond.preheader.i.i.i ]
  %div.i.i.i = sdiv i64 %fdwtz.013.i.i.i, 10
  %rem.i.i.i = srem i64 %div.i.i.i, 10
  %cmp25.i.i.i = icmp eq i64 %rem.i.i.i, 0
  br i1 %cmp25.i.i.i, label %while.body.i.i.i, label %invoke.cont, !llvm.loop !51

invoke.cont:                                      ; preds = %while.body.i.i.i, %while.cond.preheader.i.i.i, %if.end21.i.i.i, %if.end21.thread.i.i.i
  %fdwtz.0.lcssa.sink.i.i.i = phi i64 [ 0, %if.end21.thread.i.i.i ], [ 0, %if.end21.i.i.i ], [ %f, %while.cond.preheader.i.i.i ], [ %div.i.i.i, %while.body.i.i.i ]
  %decimalDigitsWithoutTrailingZeros26.i.i.i = getelementptr inbounds i8, ptr %this, i64 40
  store i64 %fdwtz.0.lcssa.sink.i.i.i, ptr %decimalDigitsWithoutTrailingZeros26.i.i.i, align 8
  ret void

lpad:                                             ; preds = %call.i.i.i.noexc, %entry
  %5 = landingpad { ptr, i32 }
          cleanup
  tail call void @_ZN6icu_757UObjectD2Ev(ptr noundef nonnull align 8 dereferenceable(8) %0) #25
  tail call void @_ZN6icu_7513IFixedDecimalD2Ev(ptr noundef nonnull align 8 dereferenceable(8) %this) #25
  resume { ptr, i32 } %5
}